; Function Attrs: mustprogress nofree norecurse nosync nounwind willreturn memory(read, argmem: write, inaccessiblemem: none) uwtable
define hidden void @_glfwGetMonitorContentScaleX11(ptr noundef readnone captures(none) %0, ptr noundef writeonly captures(address_is_null) %1, ptr noundef writeonly captures(address_is_null) %2) local_unnamed_addr #5 {
  %.not = icmp eq ptr %1, null
  br i1 %.not, label %6, label %4

4:                                                ; preds = %3
  %5 = load float, ptr getelementptr inbounds nuw (i8, ptr @_glfw, i64 137864), align 8, !tbaa !182
  store float %5, ptr %1, align 4, !tbaa !183
  br label %6

6:                                                ; preds = %4, %3
  %.not5 = icmp eq ptr %2, null
  br i1 %.not5, label %9, label %7

7:                                                ; preds = %6
  %8 = load float, ptr getelementptr inbounds nuw (i8, ptr @_glfw, i64 137868), align 4, !tbaa !184
  store float %8, ptr %2, align 4, !tbaa !183
  br label %9

9:                                                ; preds = %7, %6
  ret void
}